target datalayout = "e-m:e-p270:32:32-p271:32:32-p272:64:64-i64:64-i128:128-f80:128-n8:16:32:64-S128"
target triple = "x86_64-pc-linux-gnu"

@hf_etch_dim = internal global i32 0, align 4
@hf_etch_typecode = internal global i32 0, align 4
@hf_etch_value = internal global i32 0, align 4
@hf_etch_bytes = internal global i32 0, align 4
@hf_etch_byte = internal global i32 0, align 4
@hf_etch_short = internal global i32 0, align 4
@hf_etch_int = internal global i32 0, align 4
@hf_etch_long = internal global i32 0, align 4
@hf_etch_float = internal global i32 0, align 4
@hf_etch_double = internal global i32 0, align 4
@hf_etch_string = internal global i32 0, align 4

; Function Attrs: null_pointer_is_valid sspstrong uwtable
define internal void @read_array_type(ptr noundef %0, ptr noundef %1, ptr noundef %2) #0 {
  %4 = alloca ptr, align 8
  %5 = alloca ptr, align 8
  %6 = alloca ptr, align 8
  %7 = alloca i32, align 4
  store ptr %0, ptr %4, align 8
  store ptr %1, ptr %5, align 8
  store ptr %2, ptr %6, align 8
  call void @llvm.lifetime.start.p0(i64 4, ptr %7) #8
  %8 = load ptr, ptr %5, align 8
  %9 = load ptr, ptr %4, align 8
  %10 = load i32, ptr %9, align 4
  %11 = call zeroext i8 @tvb_get_uint8(ptr noundef %8, i32 noundef %10)
  %12 = zext i8 %11 to i32
  store i32 %12, ptr %7, align 4
  %13 = load ptr, ptr %4, align 8
  %14 = load ptr, ptr %5, align 8
  %15 = load ptr, ptr %6, align 8
  %16 = call zeroext i8 @read_type(ptr noundef %13, ptr noundef %14, ptr noundef %15)
  %17 = load i32, ptr %7, align 4
  %18 = icmp eq i32 %17, 149
  br i1 %18, label %19, label %33

19:                                               ; preds = %3
  %20 = load ptr, ptr %4, align 8
  %21 = load ptr, ptr %5, align 8
  %22 = load ptr, ptr %6, align 8
  %23 = call zeroext i8 @read_type(ptr noundef %20, ptr noundef %21, ptr noundef %22)
  %24 = load ptr, ptr %6, align 8
  %25 = load i32, ptr @hf_etch_value, align 4
  %26 = load ptr, ptr %5, align 8
  %27 = load ptr, ptr %4, align 8
  %28 = load i32, ptr %27, align 4
  %29 = call ptr @proto_tree_add_item(ptr noundef %24, i32 noundef %25, ptr noundef %26, i32 noundef %28, i32 noundef 4, i32 noundef 0)
  %30 = load ptr, ptr %4, align 8
  %31 = load i32, ptr %30, align 4
  %32 = add i32 %31, 4
  store i32 %32, ptr %30, align 4
  br label %33

33:                                               ; preds = %19, %3
  call void @llvm.lifetime.end.p0(i64 4, ptr %7) #8
  ret void
}

; Function Attrs: null_pointer_is_valid sspstrong uwtable
define internal zeroext i8 @read_type(ptr noundef %0, ptr noundef %1, ptr noundef %2) #0 {
  %4 = alloca ptr, align 8
  %5 = alloca ptr, align 8
  %6 = alloca ptr, align 8
  %7 = alloca i32, align 4
  store ptr %0, ptr %4, align 8
  store ptr %1, ptr %5, align 8
  store ptr %2, ptr %6, align 8
  call void @llvm.lifetime.start.p0(i64 4, ptr %7) #8
  %8 = load ptr, ptr %5, align 8
  %9 = load ptr, ptr %4, align 8
  %10 = load i32, ptr %9, align 4
  %11 = call zeroext i8 @tvb_get_uint8(ptr noundef %8, i32 noundef %10)
  %12 = zext i8 %11 to i32
  store i32 %12, ptr %7, align 4
  %13 = load ptr, ptr %6, align 8
  %14 = load i32, ptr @hf_etch_typecode, align 4
  %15 = load ptr, ptr %5, align 8
  %16 = load ptr, ptr %4, align 8
  %17 = load i32, ptr %16, align 4
  %18 = call ptr @proto_tree_add_item(ptr noundef %13, i32 noundef %14, ptr noundef %15, i32 noundef %17, i32 noundef 1, i32 noundef 0)
  %19 = load ptr, ptr %4, align 8
  %20 = load i32, ptr %19, align 4
  %21 = add i32 %20, 1
  store i32 %21, ptr %19, align 4
  %22 = load i32, ptr %7, align 4
  %23 = trunc i32 %22 to i8
  call void @llvm.lifetime.end.p0(i64 4, ptr %7) #8
  ret i8 %23
}

; Function Attrs: null_pointer_is_valid sspstrong uwtable
define internal void @read_bytes(ptr noundef %0, ptr noundef %1, ptr noundef %2) #0 {
  %4 = alloca ptr, align 8
  %5 = alloca ptr, align 8
  %6 = alloca ptr, align 8
  %7 = alloca i32, align 4
  store ptr %0, ptr %4, align 8
  store ptr %1, ptr %5, align 8
  store ptr %2, ptr %6, align 8
  call void @llvm.lifetime.start.p0(i64 4, ptr %7) #8
  %8 = load ptr, ptr %4, align 8
  %9 = load ptr, ptr %5, align 8
  %10 = load ptr, ptr %6, align 8
  %11 = call zeroext i8 @read_type(ptr noundef %8, ptr noundef %9, ptr noundef %10)
  %12 = load ptr, ptr %4, align 8
  %13 = load ptr, ptr %5, align 8
  %14 = load ptr, ptr %6, align 8
  %15 = call i32 @read_length(ptr noundef %12, ptr noundef %13, ptr noundef %14)
  store i32 %15, ptr %7, align 4
  %16 = load ptr, ptr %6, align 8
  %17 = load i32, ptr @hf_etch_bytes, align 4
  %18 = load ptr, ptr %5, align 8
  %19 = load ptr, ptr %4, align 8
  %20 = load i32, ptr %19, align 4
  %21 = load i32, ptr %7, align 4
  %22 = call ptr @proto_tree_add_item(ptr noundef %16, i32 noundef %17, ptr noundef %18, i32 noundef %20, i32 noundef %21, i32 noundef 0)
  %23 = load i32, ptr %7, align 4
  %24 = load ptr, ptr %4, align 8
  %25 = load i32, ptr %24, align 4
  %26 = add i32 %25, %23
  store i32 %26, ptr %24, align 4
  call void @llvm.lifetime.end.p0(i64 4, ptr %7) #8
  ret void
}

; Function Attrs: null_pointer_is_valid sspstrong uwtable
define internal void @read_string(ptr noundef %0, ptr noundef %1, ptr noundef %2) #0 {
  %4 = alloca ptr, align 8
  %5 = alloca ptr, align 8
  %6 = alloca ptr, align 8
  %7 = alloca i32, align 4
  store ptr %0, ptr %4, align 8
  store ptr %1, ptr %5, align 8
  store ptr %2, ptr %6, align 8
  call void @llvm.lifetime.start.p0(i64 4, ptr %7) #8
  %8 = load ptr, ptr %4, align 8
  %9 = load ptr, ptr %5, align 8
  %10 = load ptr, ptr %6, align 8
  %11 = call zeroext i8 @read_type(ptr noundef %8, ptr noundef %9, ptr noundef %10)
  %12 = load ptr, ptr %4, align 8
  %13 = load ptr, ptr %5, align 8
  %14 = load ptr, ptr %6, align 8
  %15 = call i32 @read_length(ptr noundef %12, ptr noundef %13, ptr noundef %14)
  store i32 %15, ptr %7, align 4
  %16 = load ptr, ptr %6, align 8
  %17 = load i32, ptr @hf_etch_string, align 4
  %18 = load ptr, ptr %5, align 8
  %19 = load ptr, ptr %4, align 8
  %20 = load i32, ptr %19, align 4
  %21 = load i32, ptr %7, align 4
  %22 = call ptr @proto_tree_add_item(ptr noundef %16, i32 noundef %17, ptr noundef %18, i32 noundef %20, i32 noundef %21, i32 noundef 0)
  %23 = load i32, ptr %7, align 4
  %24 = load ptr, ptr %4, align 8
  %25 = load i32, ptr %24, align 4
  %26 = add i32 %25, %23
  store i32 %26, ptr %24, align 4
  call void @llvm.lifetime.end.p0(i64 4, ptr %7) #8
  ret void
}

; Function Attrs: null_pointer_is_valid sspstrong uwtable
define internal void @read_array(ptr noundef %0, ptr noundef %1, ptr noundef %2, ptr noundef %3) #0 {
  %5 = alloca ptr, align 8
  %6 = alloca ptr, align 8
  %7 = alloca ptr, align 8
  %8 = alloca ptr, align 8
  %9 = alloca i32, align 4
  store ptr %0, ptr %5, align 8
  store ptr %1, ptr %6, align 8
  store ptr %2, ptr %7, align 8
  store ptr %3, ptr %8, align 8
  call void @llvm.lifetime.start.p0(i64 4, ptr %9) #8
  %10 = load ptr, ptr %5, align 8
  %11 = load ptr, ptr %6, align 8
  %12 = load ptr, ptr %7, align 8
  %13 = call zeroext i8 @read_type(ptr noundef %10, ptr noundef %11, ptr noundef %12)
  %14 = load ptr, ptr %5, align 8
  %15 = load ptr, ptr %6, align 8
  %16 = load ptr, ptr %7, align 8
  call void @read_array_type(ptr noundef %14, ptr noundef %15, ptr noundef %16)
  %17 = load ptr, ptr %7, align 8
  %18 = load i32, ptr @hf_etch_dim, align 4
  %19 = load ptr, ptr %6, align 8
  %20 = load ptr, ptr %5, align 8
  %21 = load i32, ptr %20, align 4
  %22 = call ptr @proto_tree_add_item(ptr noundef %17, i32 noundef %18, ptr noundef %19, i32 noundef %21, i32 noundef 1, i32 noundef 0)
  %23 = load ptr, ptr %5, align 8
  %24 = load i32, ptr %23, align 4
  %25 = add i32 %24, 1
  store i32 %25, ptr %23, align 4
  %26 = load ptr, ptr %5, align 8
  %27 = load ptr, ptr %6, align 8
  %28 = load ptr, ptr %7, align 8
  %29 = call i32 @read_length(ptr noundef %26, ptr noundef %27, ptr noundef %28)
  store i32 %29, ptr %9, align 4
  br label %30

30:                                               ; preds = %40, %4
  %31 = load i32, ptr %9, align 4
  %32 = icmp sgt i32 %31, 0
  br i1 %32, label %33, label %43

33:                                               ; preds = %30
  %34 = load ptr, ptr %5, align 8
  %35 = load ptr, ptr %6, align 8
  %36 = load ptr, ptr %7, align 8
  %37 = load ptr, ptr %8, align 8
  %38 = load i32, ptr @hf_etch_value, align 4
  %39 = call i32 @read_value(ptr noundef %34, ptr noundef %35, ptr noundef %36, ptr noundef %37, i32 noundef %38)
  br label %40

40:                                               ; preds = %33
  %41 = load i32, ptr %9, align 4
  %42 = add i32 %41, -1
  store i32 %42, ptr %9, align 4
  br label %30, !llvm.loop !11

43:                                               ; preds = %30
  %44 = load ptr, ptr %5, align 8
  %45 = load ptr, ptr %6, align 8
  %46 = load ptr, ptr %7, align 8
  %47 = call zeroext i8 @read_type(ptr noundef %44, ptr noundef %45, ptr noundef %46)
  call void @llvm.lifetime.end.p0(i64 4, ptr %9) #8
  ret void
}

; Function Attrs: null_pointer_is_valid sspstrong uwtable
define internal i32 @read_value(ptr noundef %0, ptr noundef %1, ptr noundef %2, ptr noundef %3, i32 noundef %4) #0 {
  %6 = alloca i32, align 4
  %7 = alloca ptr, align 8
  %8 = alloca ptr, align 8
  %9 = alloca ptr, align 8
  %10 = alloca ptr, align 8
  %11 = alloca i32, align 4
  %12 = alloca i8, align 1
  %13 = alloca i32, align 4
  store ptr %0, ptr %7, align 8
  store ptr %1, ptr %8, align 8
  store ptr %2, ptr %9, align 8
  store ptr %3, ptr %10, align 8
  store i32 %4, ptr %11, align 4
  call void @llvm.lifetime.start.p0(i64 1, ptr %12) #8
  %14 = load ptr, ptr %8, align 8
  %15 = load ptr, ptr %7, align 8
  %16 = load i32, ptr %15, align 4
  %17 = call zeroext i8 @tvb_get_uint8(ptr noundef %14, i32 noundef %16)
  store i8 %17, ptr %12, align 1
  %18 = load i8, ptr %12, align 1
  %19 = zext i8 %18 to i32
  %20 = icmp sle i32 %19, 127
  br i1 %20, label %25, label %21

21:                                               ; preds = %5
  %22 = load i8, ptr %12, align 1
  %23 = zext i8 %22 to i32
  %24 = icmp sge i32 %23, 192
  br i1 %24, label %25, label %37

25:                                               ; preds = %21, %5
  %26 = load ptr, ptr %9, align 8
  %27 = load i32, ptr %11, align 4
  %28 = load ptr, ptr %8, align 8
  %29 = load ptr, ptr %7, align 8
  %30 = load i32, ptr %29, align 4
  %31 = call ptr @proto_tree_add_item(ptr noundef %26, i32 noundef %27, ptr noundef %28, i32 noundef %30, i32 noundef 1, i32 noundef 0)
  %32 = load ptr, ptr %7, align 8
  %33 = load i32, ptr %32, align 4
  %34 = add i32 %33, 1
  store i32 %34, ptr %32, align 4
  %35 = load i8, ptr %12, align 1
  %36 = zext i8 %35 to i32
  store i32 %36, ptr %6, align 4
  store i32 1, ptr %13, align 4
  br label %103

37:                                               ; preds = %21
  %38 = load ptr, ptr %10, align 8
  call void @increment_dissection_depth(ptr noundef %38)
  %39 = load i8, ptr %12, align 1
  %40 = zext i8 %39 to i32
  switch i32 %40, label %95 [
    i32 149, label %41
    i32 145, label %46
    i32 147, label %51
    i32 136, label %55
    i32 137, label %61
    i32 133, label %67
    i32 134, label %73
    i32 135, label %79
    i32 132, label %85
    i32 139, label %91
  ]

41:                                               ; preds = %37
  %42 = load ptr, ptr %7, align 8
  %43 = load ptr, ptr %8, align 8
  %44 = load ptr, ptr %9, align 8
  %45 = load ptr, ptr %10, align 8
  call void @read_struct(ptr noundef %42, ptr noundef %43, ptr noundef %44, ptr noundef %45, i32 noundef 1)
  br label %101

46:                                               ; preds = %37
  %47 = load ptr, ptr %7, align 8
  %48 = load ptr, ptr %8, align 8
  %49 = load ptr, ptr %9, align 8
  %50 = load ptr, ptr %10, align 8
  call void @read_array(ptr noundef %47, ptr noundef %48, ptr noundef %49, ptr noundef %50)
  br label %101

51:                                               ; preds = %37
  %52 = load ptr, ptr %7, align 8
  %53 = load ptr, ptr %8, align 8
  %54 = load ptr, ptr %9, align 8
  call void @read_string(ptr noundef %52, ptr noundef %53, ptr noundef %54)
  br label %101

55:                                               ; preds = %37
  %56 = load ptr, ptr %7, align 8
  %57 = load ptr, ptr %8, align 8
  %58 = load ptr, ptr %9, align 8
  %59 = load i32, ptr @hf_etch_float, align 4
  %60 = load i8, ptr %12, align 1
  call void @read_number(ptr noundef %56, ptr noundef %57, ptr noundef %58, i32 noundef %59, i8 noundef zeroext %60)
  br label %101

61:                                               ; preds = %37
  %62 = load ptr, ptr %7, align 8
  %63 = load ptr, ptr %8, align 8
  %64 = load ptr, ptr %9, align 8
  %65 = load i32, ptr @hf_etch_double, align 4
  %66 = load i8, ptr %12, align 1
  call void @read_number(ptr noundef %62, ptr noundef %63, ptr noundef %64, i32 noundef %65, i8 noundef zeroext %66)
  br label %101

67:                                               ; preds = %37
  %68 = load ptr, ptr %7, align 8
  %69 = load ptr, ptr %8, align 8
  %70 = load ptr, ptr %9, align 8
  %71 = load i32, ptr @hf_etch_short, align 4
  %72 = load i8, ptr %12, align 1
  call void @read_number(ptr noundef %68, ptr noundef %69, ptr noundef %70, i32 noundef %71, i8 noundef zeroext %72)
  br label %101

73:                                               ; preds = %37
  %74 = load ptr, ptr %7, align 8
  %75 = load ptr, ptr %8, align 8
  %76 = load ptr, ptr %9, align 8
  %77 = load i32, ptr @hf_etch_int, align 4
  %78 = load i8, ptr %12, align 1
  call void @read_number(ptr noundef %74, ptr noundef %75, ptr noundef %76, i32 noundef %77, i8 noundef zeroext %78)
  br label %101

79:                                               ; preds = %37
  %80 = load ptr, ptr %7, align 8
  %81 = load ptr, ptr %8, align 8
  %82 = load ptr, ptr %9, align 8
  %83 = load i32, ptr @hf_etch_long, align 4
  %84 = load i8, ptr %12, align 1
  call void @read_number(ptr noundef %80, ptr noundef %81, ptr noundef %82, i32 noundef %83, i8 noundef zeroext %84)
  br label %101

85:                                               ; preds = %37
  %86 = load ptr, ptr %7, align 8
  %87 = load ptr, ptr %8, align 8
  %88 = load ptr, ptr %9, align 8
  %89 = load i32, ptr @hf_etch_byte, align 4
  %90 = load i8, ptr %12, align 1
  call void @read_number(ptr noundef %86, ptr noundef %87, ptr noundef %88, i32 noundef %89, i8 noundef zeroext %90)
  br label %101

91:                                               ; preds = %37
  %92 = load ptr, ptr %7, align 8
  %93 = load ptr, ptr %8, align 8
  %94 = load ptr, ptr %9, align 8
  call void @read_bytes(ptr noundef %92, ptr noundef %93, ptr noundef %94)
  br label %101

95:                                               ; preds = %37
  %96 = load ptr, ptr %7, align 8
  %97 = load ptr, ptr %8, align 8
  %98 = load ptr, ptr %9, align 8
  %99 = load i32, ptr %11, align 4
  %100 = load i8, ptr %12, align 1
  call void @read_number(ptr noundef %96, ptr noundef %97, ptr noundef %98, i32 noundef %99, i8 noundef zeroext %100)
  br label %101

101:                                              ; preds = %95, %91, %85, %79, %73, %67, %61, %55, %51, %46, %41
  %102 = load ptr, ptr %10, align 8
  call void @decrement_dissection_depth(ptr noundef %102)
  store i32 0, ptr %6, align 4
  store i32 1, ptr %13, align 4
  br label %103

103:                                              ; preds = %101, %25
  call void @llvm.lifetime.end.p0(i64 1, ptr %12) #8
  %104 = load i32, ptr %6, align 4
  ret i32 %104
}