; Function Attrs: null_pointer_is_valid sspstrong uwtable
define internal fastcc range(i32 0, 256) i32 @read_value(ptr noundef captures(none) %0, ptr noundef %1, ptr noundef %2, ptr noundef %3, i32 noundef %4) unnamed_addr #0 {
  %6 = load i32, ptr %0, align 4
  %7 = tail call zeroext i8 @tvb_get_uint8(ptr noundef %1, i32 noundef %6)
  %or.cond = icmp sgt i8 %7, -65
  br i1 %or.cond, label %8, label %14

8:                                                ; preds = %5
  %9 = zext i8 %7 to i32
  %10 = load i32, ptr %0, align 4
  %11 = tail call ptr @proto_tree_add_item(ptr noundef %2, i32 noundef %4, ptr noundef %1, i32 noundef %10, i32 noundef 1, i32 noundef 0)
  %12 = load i32, ptr %0, align 4
  %13 = add i32 %12, 1
  store i32 %13, ptr %0, align 4
  br label %152

14:                                               ; preds = %5
  tail call void @increment_dissection_depth(ptr noundef %3)
  switch i8 %7, label %150 [
    i8 -107, label %15
    i8 -111, label %16
    i8 -109, label %62
    i8 -120, label %76
    i8 -119, label %read_number.exit
    i8 -123, label %read_number.exit61
    i8 -122, label %106
    i8 -121, label %read_number.exit63
    i8 -124, label %read_number.exit65
    i8 -117, label %136
  ]

15:                                               ; preds = %14
  tail call fastcc void @read_struct(ptr noundef %0, ptr noundef %1, ptr noundef %2, ptr noundef %3, i32 noundef 1)
  br label %151

16:                                               ; preds = %14
  %17 = load i32, ptr %0, align 4
  %18 = tail call zeroext i8 @tvb_get_uint8(ptr noundef %1, i32 noundef %17)
  %19 = load i32, ptr @hf_etch_typecode, align 4
  %20 = load i32, ptr %0, align 4
  %21 = tail call ptr @proto_tree_add_item(ptr noundef %2, i32 noundef %19, ptr noundef %1, i32 noundef %20, i32 noundef 1, i32 noundef 0)
  %22 = load i32, ptr %0, align 4
  %23 = add i32 %22, 1
  store i32 %23, ptr %0, align 4
  %24 = tail call zeroext i8 @tvb_get_uint8(ptr noundef %1, i32 noundef %23)
  %25 = load i32, ptr %0, align 4
  %26 = tail call zeroext i8 @tvb_get_uint8(ptr noundef %1, i32 noundef %25)
  %27 = load i32, ptr @hf_etch_typecode, align 4
  %28 = load i32, ptr %0, align 4
  %29 = tail call ptr @proto_tree_add_item(ptr noundef %2, i32 noundef %27, ptr noundef %1, i32 noundef %28, i32 noundef 1, i32 noundef 0)
  %30 = load i32, ptr %0, align 4
  %31 = add i32 %30, 1
  store i32 %31, ptr %0, align 4
  %32 = icmp eq i8 %24, -107
  br i1 %32, label %33, label %read_array_type.exit

33:                                               ; preds = %16
  %34 = tail call zeroext i8 @tvb_get_uint8(ptr noundef %1, i32 noundef %31)
  %35 = load i32, ptr @hf_etch_typecode, align 4
  %36 = load i32, ptr %0, align 4
  %37 = tail call ptr @proto_tree_add_item(ptr noundef %2, i32 noundef %35, ptr noundef %1, i32 noundef %36, i32 noundef 1, i32 noundef 0)
  %38 = load i32, ptr %0, align 4
  %39 = add i32 %38, 1
  store i32 %39, ptr %0, align 4
  %40 = load i32, ptr @hf_etch_value, align 4
  %41 = tail call ptr @proto_tree_add_item(ptr noundef %2, i32 noundef %40, ptr noundef %1, i32 noundef %39, i32 noundef 4, i32 noundef 0)
  %42 = load i32, ptr %0, align 4
  %43 = add i32 %42, 4
  store i32 %43, ptr %0, align 4
  br label %read_array_type.exit

read_array_type.exit:                             ; preds = %16, %33
  %44 = phi i32 [ %31, %16 ], [ %43, %33 ]
  %45 = load i32, ptr @hf_etch_dim, align 4
  %46 = tail call ptr @proto_tree_add_item(ptr noundef %2, i32 noundef %45, ptr noundef %1, i32 noundef %44, i32 noundef 1, i32 noundef 0)
  %47 = load i32, ptr %0, align 4
  %48 = add i32 %47, 1
  store i32 %48, ptr %0, align 4
  %49 = tail call fastcc i32 @read_length(ptr noundef %0, ptr noundef %1, ptr noundef %2)
  %50 = icmp sgt i32 %49, 0
  br i1 %50, label %.lr.ph, label %read_array.exit

.lr.ph:                                           ; preds = %read_array_type.exit, %.lr.ph
  %.0.i59 = phi i32 [ %53, %.lr.ph ], [ %49, %read_array_type.exit ]
  %51 = load i32, ptr @hf_etch_value, align 4
  %52 = tail call fastcc i32 @read_value(ptr noundef %0, ptr noundef %1, ptr noundef %2, ptr noundef %3, i32 noundef %51)
  %53 = add nsw i32 %.0.i59, -1
  %54 = icmp samesign ugt i32 %.0.i59, 1
  br i1 %54, label %.lr.ph, label %read_array.exit, !llvm.loop !12

read_array.exit:                                  ; preds = %.lr.ph, %read_array_type.exit
  %55 = load i32, ptr %0, align 4
  %56 = tail call zeroext i8 @tvb_get_uint8(ptr noundef %1, i32 noundef %55)
  %57 = load i32, ptr @hf_etch_typecode, align 4
  %58 = load i32, ptr %0, align 4
  %59 = tail call ptr @proto_tree_add_item(ptr noundef %2, i32 noundef %57, ptr noundef %1, i32 noundef %58, i32 noundef 1, i32 noundef 0)
  %60 = load i32, ptr %0, align 4
  %61 = add i32 %60, 1
  store i32 %61, ptr %0, align 4
  br label %151

62:                                               ; preds = %14
  %63 = load i32, ptr %0, align 4
  %64 = tail call zeroext i8 @tvb_get_uint8(ptr noundef %1, i32 noundef %63)
  %65 = load i32, ptr @hf_etch_typecode, align 4
  %66 = load i32, ptr %0, align 4
  %67 = tail call ptr @proto_tree_add_item(ptr noundef %2, i32 noundef %65, ptr noundef %1, i32 noundef %66, i32 noundef 1, i32 noundef 0)
  %68 = load i32, ptr %0, align 4
  %69 = add i32 %68, 1
  store i32 %69, ptr %0, align 4
  %70 = tail call fastcc i32 @read_length(ptr noundef %0, ptr noundef %1, ptr noundef %2)
  %71 = load i32, ptr @hf_etch_string, align 4
  %72 = load i32, ptr %0, align 4
  %73 = tail call ptr @proto_tree_add_item(ptr noundef %2, i32 noundef %71, ptr noundef %1, i32 noundef %72, i32 noundef %70, i32 noundef 0)
  %74 = load i32, ptr %0, align 4
  %75 = add i32 %74, %70
  store i32 %75, ptr %0, align 4
  br label %151

76:                                               ; preds = %14
  %77 = load i32, ptr @hf_etch_float, align 4
  tail call fastcc void @read_number(ptr noundef %0, ptr noundef %1, ptr noundef %2, i32 noundef %77, i8 noundef zeroext -120)
  br label %151

read_number.exit:                                 ; preds = %14
  %78 = load i32, ptr @hf_etch_double, align 4
  %79 = load i32, ptr %0, align 4
  %80 = tail call zeroext i8 @tvb_get_uint8(ptr noundef %1, i32 noundef %79)
  %81 = load i32, ptr @hf_etch_typecode, align 4
  %82 = load i32, ptr %0, align 4
  %83 = tail call ptr @proto_tree_add_item(ptr noundef %2, i32 noundef %81, ptr noundef %1, i32 noundef %82, i32 noundef 1, i32 noundef 0)
  %84 = load i32, ptr %0, align 4
  %85 = add i32 %84, 1
  store i32 %85, ptr %0, align 4
  %86 = tail call ptr @wmem_packet_scope()
  %87 = tail call noalias ptr @wmem_strbuf_new(ptr noundef %86, ptr noundef nonnull @.str.70)
  store ptr %87, ptr @gbl_symbol_buffer, align 8
  %88 = load i32, ptr %0, align 4
  %89 = tail call ptr @proto_tree_add_item(ptr noundef %2, i32 noundef %78, ptr noundef %1, i32 noundef %88, i32 noundef 8, i32 noundef 0)
  %90 = load i32, ptr %0, align 4
  %91 = add i32 %90, 8
  store i32 %91, ptr %0, align 4
  br label %151

read_number.exit61:                               ; preds = %14
  %92 = load i32, ptr @hf_etch_short, align 4
  %93 = load i32, ptr %0, align 4
  %94 = tail call zeroext i8 @tvb_get_uint8(ptr noundef %1, i32 noundef %93)
  %95 = load i32, ptr @hf_etch_typecode, align 4
  %96 = load i32, ptr %0, align 4
  %97 = tail call ptr @proto_tree_add_item(ptr noundef %2, i32 noundef %95, ptr noundef %1, i32 noundef %96, i32 noundef 1, i32 noundef 0)
  %98 = load i32, ptr %0, align 4
  %99 = add i32 %98, 1
  store i32 %99, ptr %0, align 4
  %100 = tail call ptr @wmem_packet_scope()
  %101 = tail call noalias ptr @wmem_strbuf_new(ptr noundef %100, ptr noundef nonnull @.str.70)
  store ptr %101, ptr @gbl_symbol_buffer, align 8
  %102 = load i32, ptr %0, align 4
  %103 = tail call ptr @proto_tree_add_item(ptr noundef %2, i32 noundef %92, ptr noundef %1, i32 noundef %102, i32 noundef 2, i32 noundef 0)
  %104 = load i32, ptr %0, align 4
  %105 = add i32 %104, 2
  store i32 %105, ptr %0, align 4
  br label %151

106:                                              ; preds = %14
  %107 = load i32, ptr @hf_etch_int, align 4
  tail call fastcc void @read_number(ptr noundef %0, ptr noundef %1, ptr noundef %2, i32 noundef %107, i8 noundef zeroext -122)
  br label %151

read_number.exit63:                               ; preds = %14
  %108 = load i32, ptr @hf_etch_long, align 4
  %109 = load i32, ptr %0, align 4
  %110 = tail call zeroext i8 @tvb_get_uint8(ptr noundef %1, i32 noundef %109)
  %111 = load i32, ptr @hf_etch_typecode, align 4
  %112 = load i32, ptr %0, align 4
  %113 = tail call ptr @proto_tree_add_item(ptr noundef %2, i32 noundef %111, ptr noundef %1, i32 noundef %112, i32 noundef 1, i32 noundef 0)
  %114 = load i32, ptr %0, align 4
  %115 = add i32 %114, 1
  store i32 %115, ptr %0, align 4
  %116 = tail call ptr @wmem_packet_scope()
  %117 = tail call noalias ptr @wmem_strbuf_new(ptr noundef %116, ptr noundef nonnull @.str.70)
  store ptr %117, ptr @gbl_symbol_buffer, align 8
  %118 = load i32, ptr %0, align 4
  %119 = tail call ptr @proto_tree_add_item(ptr noundef %2, i32 noundef %108, ptr noundef %1, i32 noundef %118, i32 noundef 8, i32 noundef 0)
  %120 = load i32, ptr %0, align 4
  %121 = add i32 %120, 8
  store i32 %121, ptr %0, align 4
  br label %151

read_number.exit65:                               ; preds = %14
  %122 = load i32, ptr @hf_etch_byte, align 4
  %123 = load i32, ptr %0, align 4
  %124 = tail call zeroext i8 @tvb_get_uint8(ptr noundef %1, i32 noundef %123)
  %125 = load i32, ptr @hf_etch_typecode, align 4
  %126 = load i32, ptr %0, align 4
  %127 = tail call ptr @proto_tree_add_item(ptr noundef %2, i32 noundef %125, ptr noundef %1, i32 noundef %126, i32 noundef 1, i32 noundef 0)
  %128 = load i32, ptr %0, align 4
  %129 = add i32 %128, 1
  store i32 %129, ptr %0, align 4
  %130 = tail call ptr @wmem_packet_scope()
  %131 = tail call noalias ptr @wmem_strbuf_new(ptr noundef %130, ptr noundef nonnull @.str.70)
  store ptr %131, ptr @gbl_symbol_buffer, align 8
  %132 = load i32, ptr %0, align 4
  %133 = tail call ptr @proto_tree_add_item(ptr noundef %2, i32 noundef %122, ptr noundef %1, i32 noundef %132, i32 noundef 1, i32 noundef 0)
  %134 = load i32, ptr %0, align 4
  %135 = add i32 %134, 1
  store i32 %135, ptr %0, align 4
  br label %151

136:                                              ; preds = %14
  %137 = load i32, ptr %0, align 4
  %138 = tail call zeroext i8 @tvb_get_uint8(ptr noundef %1, i32 noundef %137)
  %139 = load i32, ptr @hf_etch_typecode, align 4
  %140 = load i32, ptr %0, align 4
  %141 = tail call ptr @proto_tree_add_item(ptr noundef %2, i32 noundef %139, ptr noundef %1, i32 noundef %140, i32 noundef 1, i32 noundef 0)
  %142 = load i32, ptr %0, align 4
  %143 = add i32 %142, 1
  store i32 %143, ptr %0, align 4
  %144 = tail call fastcc i32 @read_length(ptr noundef %0, ptr noundef %1, ptr noundef %2)
  %145 = load i32, ptr @hf_etch_bytes, align 4
  %146 = load i32, ptr %0, align 4
  %147 = tail call ptr @proto_tree_add_item(ptr noundef %2, i32 noundef %145, ptr noundef %1, i32 noundef %146, i32 noundef %144, i32 noundef 0)
  %148 = load i32, ptr %0, align 4
  %149 = add i32 %148, %144
  store i32 %149, ptr %0, align 4
  br label %151

150:                                              ; preds = %14
  tail call fastcc void @read_number(ptr noundef %0, ptr noundef %1, ptr noundef %2, i32 noundef %4, i8 noundef zeroext %7)
  br label %151

151:                                              ; preds = %150, %136, %read_number.exit65, %read_number.exit63, %106, %read_number.exit61, %read_number.exit, %76, %62, %read_array.exit, %15
  tail call void @decrement_dissection_depth(ptr noundef %3)
  br label %152

152:                                              ; preds = %151, %8
  %.0 = phi i32 [ %9, %8 ], [ 0, %151 ]
  ret i32 %.0
}